; ModuleID = '56/2210.c'
source_filename = "56/2210.c"
target datalayout = "e-m:e-p270:32:32-p271:32:32-p272:64:64-i64:64-f80:128-n8:16:32:64-S128"
target triple = "x86_64-pc-linux-gnu"

@.str = private unnamed_addr constant [4 x i8] c"%d\0A\00", align 1
@.str.1 = private unnamed_addr constant [3 x i8] c"%d\00", align 1

; Function Attrs: noinline nounwind uwtable
define dso_local i32 @main() #0 {
  %1 = alloca i32, align 4
  %2 = alloca i32, align 4
  %3 = alloca i32, align 4
  %4 = alloca [5 x i32], align 16
  store i32 0, i32* %1, align 4
  %5 = call i32 (i8*, ...) @__isoc99_scanf(i8* getelementptr inbounds ([4 x i8], [4 x i8]* @.str, i64 0, i64 0), i32* %2)
  %6 = load i32, i32* %2, align 4
  %7 = sdiv i32 %6, 10000
  %8 = getelementptr inbounds [5 x i32], [5 x i32]* %4, i64 0, i64 0
  store i32 %7, i32* %8, align 16
  %9 = load i32, i32* %2, align 4
  %10 = load i32, i32* %2, align 4
  %11 = sdiv i32 %10, 10000
  %12 = mul nsw i32 %11, 10000
  %13 = sub nsw i32 %9, %12
  %14 = sdiv i32 %13, 1000
  %15 = getelementptr inbounds [5 x i32], [5 x i32]* %4, i64 0, i64 1
  store i32 %14, i32* %15, align 4
  %16 = load i32, i32* %2, align 4
  %17 = load i32, i32* %2, align 4
  %18 = sdiv i32 %17, 1000
  %19 = mul nsw i32 %18, 1000
  %20 = sub nsw i32 %16, %19
  %21 = sdiv i32 %20, 100
  %22 = getelementptr inbounds [5 x i32], [5 x i32]* %4, i64 0, i64 2
  store i32 %21, i32* %22, align 8
  %23 = load i32, i32* %2, align 4
  %24 = load i32, i32* %2, align 4
  %25 = sdiv i32 %24, 100
  %26 = mul nsw i32 %25, 100
  %27 = sub nsw i32 %23, %26
  %28 = sdiv i32 %27, 10
  %29 = getelementptr inbounds [5 x i32], [5 x i32]* %4, i64 0, i64 3
  store i32 %28, i32* %29, align 4
  %30 = load i32, i32* %2, align 4
  %31 = load i32, i32* %2, align 4
  %32 = sdiv i32 %31, 10
  %33 = mul nsw i32 %32, 10
  %34 = sub nsw i32 %30, %33
  %35 = getelementptr inbounds [5 x i32], [5 x i32]* %4, i64 0, i64 4
  store i32 %34, i32* %35, align 16
  store i32 4, i32* %3, align 4
  br label %36

36:                                               ; preds = %52, %0
  %37 = load i32, i32* %3, align 4
  %38 = icmp sge i32 %37, 0
  br i1 %38, label %39, label %55

39:                                               ; preds = %36
  %40 = load i32, i32* %3, align 4
  %41 = sext i32 %40 to i64
  %42 = getelementptr inbounds [5 x i32], [5 x i32]* %4, i64 0, i64 %41
  %43 = load i32, i32* %42, align 4
  %44 = icmp ne i32 %43, 0
  br i1 %44, label %45, label %51

45:                                               ; preds = %39
  %46 = load i32, i32* %3, align 4
  %47 = sext i32 %46 to i64
  %48 = getelementptr inbounds [5 x i32], [5 x i32]* %4, i64 0, i64 %47
  %49 = load i32, i32* %48, align 4
  %50 = call i32 (i8*, ...) @printf(i8* getelementptr inbounds ([3 x i8], [3 x i8]* @.str.1, i64 0, i64 0), i32 %49)
  br label %51

51:                                               ; preds = %45, %39
  br label %52

52:                                               ; preds = %51
  %53 = load i32, i32* %3, align 4
  %54 = add nsw i32 %53, -1
  store i32 %54, i32* %3, align 4
  br label %36

55:                                               ; preds = %36
  %56 = load i32, i32* %1, align 4
  ret i32 %56
}

declare dso_local i32 @__isoc99_scanf(i8*, ...) #1

declare dso_local i32 @printf(i8*, ...) #1


!llvm.module.flags = !{!0}
!llvm.ident = !{!1}

!0 = !{i32 1, !"wchar_size", i32 4}
!1 = !{!"clang version 10.0.0-4ubuntu1 "}
