; ModuleID = 'source-C-CXX/55/2210.c'
source_filename = "source-C-CXX/55/2210.c"
target datalayout = "e-m:e-p270:32:32-p271:32:32-p272:64:64-i64:64-f80:128-n8:16:32:64-S128"
target triple = "x86_64-pc-linux-gnu"

@.str = private unnamed_addr constant [4 x i8] c"%d\0A\00", align 1
@.str.1 = private unnamed_addr constant [3 x i8] c"%d\00", align 1

; Function Attrs: nofree nounwind sspstrong uwtable
define dso_local i32 @main() local_unnamed_addr #0 {
  %1 = alloca i32, align 4
  %2 = bitcast i32* %1 to i8*
  call void @llvm.lifetime.start.p0i8(i64 4, i8* nonnull %2) #3
  %3 = call i32 (i8*, ...) @__isoc99_scanf(i8* getelementptr inbounds ([4 x i8], [4 x i8]* @.str, i64 0, i64 0), i32* nonnull %1)
  %4 = load i32, i32* %1, align 4, !tbaa !5
  %5 = sdiv i32 %4, 10000
  %6 = srem i32 %4, 10000
  %7 = trunc i32 %6 to i16
  %8 = sdiv i16 %7, 1000
  %9 = sext i16 %8 to i32
  %10 = srem i32 %4, 1000
  %11 = trunc i32 %10 to i16
  %12 = sdiv i16 %11, 100
  %13 = sext i16 %12 to i32
  %14 = srem i32 %4, 100
  %15 = trunc i32 %14 to i8
  %16 = sdiv i8 %15, 10
  %17 = sext i8 %16 to i32
  %18 = srem i32 %4, 10
  %19 = icmp eq i32 %18, 0
  br i1 %19, label %22, label %20

20:                                               ; preds = %0
  %21 = call i32 (i8*, ...) @printf(i8* nonnull dereferenceable(1) getelementptr inbounds ([3 x i8], [3 x i8]* @.str.1, i64 0, i64 0), i32 %18)
  br label %22

22:                                               ; preds = %0, %20
  %23 = add nsw i8 %15, 9
  %24 = icmp ult i8 %23, 19
  br i1 %24, label %27, label %25

25:                                               ; preds = %22
  %26 = call i32 (i8*, ...) @printf(i8* nonnull dereferenceable(1) getelementptr inbounds ([3 x i8], [3 x i8]* @.str.1, i64 0, i64 0), i32 %17)
  br label %27

27:                                               ; preds = %25, %22
  %28 = add nsw i16 %11, 99
  %29 = icmp ult i16 %28, 199
  br i1 %29, label %32, label %30

30:                                               ; preds = %27
  %31 = call i32 (i8*, ...) @printf(i8* nonnull dereferenceable(1) getelementptr inbounds ([3 x i8], [3 x i8]* @.str.1, i64 0, i64 0), i32 %13)
  br label %32

32:                                               ; preds = %30, %27
  %33 = add nsw i16 %7, 999
  %34 = icmp ult i16 %33, 1999
  br i1 %34, label %37, label %35

35:                                               ; preds = %32
  %36 = call i32 (i8*, ...) @printf(i8* nonnull dereferenceable(1) getelementptr inbounds ([3 x i8], [3 x i8]* @.str.1, i64 0, i64 0), i32 %9)
  br label %37

37:                                               ; preds = %35, %32
  %38 = add i32 %4, 9999
  %39 = icmp ult i32 %38, 19999
  br i1 %39, label %42, label %40

40:                                               ; preds = %37
  %41 = call i32 (i8*, ...) @printf(i8* nonnull dereferenceable(1) getelementptr inbounds ([3 x i8], [3 x i8]* @.str.1, i64 0, i64 0), i32 %5)
  br label %42

42:                                               ; preds = %40, %37
  call void @llvm.lifetime.end.p0i8(i64 4, i8* nonnull %2) #3
  ret i32 0
}

; Function Attrs: argmemonly mustprogress nofree nosync nounwind willreturn
declare void @llvm.lifetime.start.p0i8(i64 immarg, i8* nocapture) #1

; Function Attrs: nofree nounwind
declare noundef i32 @__isoc99_scanf(i8* nocapture noundef readonly, ...) local_unnamed_addr #2

; Function Attrs: nofree nounwind
declare noundef i32 @printf(i8* nocapture noundef readonly, ...) local_unnamed_addr #2

; Function Attrs: argmemonly mustprogress nofree nosync nounwind willreturn
declare void @llvm.lifetime.end.p0i8(i64 immarg, i8* nocapture) #1


!llvm.module.flags = !{!0, !1, !2, !3}
!llvm.ident = !{!4}

!0 = !{i32 1, !"wchar_size", i32 4}
!1 = !{i32 7, !"PIC Level", i32 2}
!2 = !{i32 7, !"PIE Level", i32 2}
!3 = !{i32 7, !"uwtable", i32 1}
!4 = !{!"clang version 13.0.0"}
!5 = !{!6, !6, i64 0}
!6 = !{!"int", !7, i64 0}
!7 = !{!"omnipotent char", !8, i64 0}
!8 = !{!"Simple C/C++ TBAA"}
